; Function Attrs: mustprogress nounwind uwtable
define void @_ZN5Ipopt25MinC_1NrmRestorationPhaseD2Ev(ptr noundef nonnull align 8 dereferenceable(140) %0) unnamed_addr #4 align 2 personality ptr @__gxx_personality_v0 {
  store ptr getelementptr inbounds ({ [6 x ptr] }, ptr @_ZTVN5Ipopt25MinC_1NrmRestorationPhaseE, i64 0, i32 0, i64 2), ptr %0, align 8
  %2 = getelementptr inbounds i8, ptr %0, i64 72
  %3 = load ptr, ptr %2, align 8
  %.not.i.i = icmp eq ptr %3, null
  br i1 %.not.i.i, label %_ZN5Ipopt8SmartPtrINS_11OptionsListEED2Ev.exit, label %4

4:                                                ; preds = %1
  %5 = getelementptr inbounds i8, ptr %3, i64 8
  %6 = load i32, ptr %5, align 8
  %7 = add nsw i32 %6, -1
  store i32 %7, ptr %5, align 8
  %8 = load ptr, ptr %2, align 8
  %9 = getelementptr inbounds i8, ptr %8, i64 8
  %10 = load i32, ptr %9, align 8
  %11 = icmp eq i32 %10, 0
  br i1 %11, label %12, label %_ZN5Ipopt8SmartPtrINS_11OptionsListEED2Ev.exit

12:                                               ; preds = %4
  %13 = load ptr, ptr %8, align 8
  %14 = getelementptr inbounds i8, ptr %13, i64 8
  %15 = load ptr, ptr %14, align 8
  tail call void %15(ptr noundef nonnull align 8 dereferenceable(112) %8) #16
  br label %_ZN5Ipopt8SmartPtrINS_11OptionsListEED2Ev.exit

_ZN5Ipopt8SmartPtrINS_11OptionsListEED2Ev.exit:   ; preds = %1, %4, %12
  %16 = getelementptr inbounds i8, ptr %0, i64 64
  %17 = load ptr, ptr %16, align 8
  %.not.i.i1 = icmp eq ptr %17, null
  br i1 %.not.i.i1, label %_ZN5Ipopt8SmartPtrINS_22EqMultiplierCalculatorEED2Ev.exit, label %18

18:                                               ; preds = %_ZN5Ipopt8SmartPtrINS_11OptionsListEED2Ev.exit
  %19 = getelementptr inbounds i8, ptr %17, i64 8
  %20 = load i32, ptr %19, align 8
  %21 = add nsw i32 %20, -1
  store i32 %21, ptr %19, align 8
  %22 = load ptr, ptr %16, align 8
  %23 = getelementptr inbounds i8, ptr %22, i64 8
  %24 = load i32, ptr %23, align 8
  %25 = icmp eq i32 %24, 0
  br i1 %25, label %26, label %_ZN5Ipopt8SmartPtrINS_22EqMultiplierCalculatorEED2Ev.exit

26:                                               ; preds = %18
  %27 = load ptr, ptr %22, align 8
  %28 = getelementptr inbounds i8, ptr %27, i64 8
  %29 = load ptr, ptr %28, align 8
  tail call void %29(ptr noundef nonnull align 8 dereferenceable(49) %22) #16
  br label %_ZN5Ipopt8SmartPtrINS_22EqMultiplierCalculatorEED2Ev.exit

_ZN5Ipopt8SmartPtrINS_22EqMultiplierCalculatorEED2Ev.exit: ; preds = %_ZN5Ipopt8SmartPtrINS_11OptionsListEED2Ev.exit, %18, %26
  %30 = getelementptr inbounds i8, ptr %0, i64 56
  %31 = load ptr, ptr %30, align 8
  %.not.i.i2 = icmp eq ptr %31, null
  br i1 %.not.i.i2, label %_ZN5Ipopt8SmartPtrINS_14IpoptAlgorithmEED2Ev.exit, label %32

32:                                               ; preds = %_ZN5Ipopt8SmartPtrINS_22EqMultiplierCalculatorEED2Ev.exit
  %33 = getelementptr inbounds i8, ptr %31, i64 8
  %34 = load i32, ptr %33, align 8
  %35 = add nsw i32 %34, -1
  store i32 %35, ptr %33, align 8
  %36 = load ptr, ptr %30, align 8
  %37 = getelementptr inbounds i8, ptr %36, i64 8
  %38 = load i32, ptr %37, align 8
  %39 = icmp eq i32 %38, 0
  br i1 %39, label %40, label %_ZN5Ipopt8SmartPtrINS_14IpoptAlgorithmEED2Ev.exit

40:                                               ; preds = %32
  %41 = load ptr, ptr %36, align 8
  %42 = getelementptr inbounds i8, ptr %41, i64 8
  %43 = load ptr, ptr %42, align 8
  tail call void %43(ptr noundef nonnull align 8 dereferenceable(200) %36) #16
  br label %_ZN5Ipopt8SmartPtrINS_14IpoptAlgorithmEED2Ev.exit

_ZN5Ipopt8SmartPtrINS_14IpoptAlgorithmEED2Ev.exit: ; preds = %_ZN5Ipopt8SmartPtrINS_22EqMultiplierCalculatorEED2Ev.exit, %32, %40
  tail call void @_ZN5Ipopt23AlgorithmStrategyObjectD2Ev(ptr noundef nonnull align 8 dereferenceable(49) %0) #16
  ret void
}